target datalayout = "e-m:e-p270:32:32-p271:32:32-p272:64:64-i64:64-i128:128-f80:128-n8:16:32:64-S128"
target triple = "x86_64-pc-linux-gnu"

@.str.412 = private unnamed_addr constant [30 x i8] c"epan/dissectors/packet-h264.c\00", align 1
@.str.626 = private unnamed_addr constant [29 x i8] c"%s:%u: failed assertion \22%s\22\00", align 1
@.str.627 = private unnamed_addr constant [5 x i8] c"actx\00", align 1

; Function Attrs: null_pointer_is_valid sspstrong uwtable
define internal i32 @dissect_h264_par_DecoderConfigurationInformation(ptr noundef %0, ptr noundef %1, ptr noundef %2, ptr noundef %3) #0 {
  %5 = alloca i32, align 4
  %6 = alloca ptr, align 8
  %7 = alloca ptr, align 8
  %8 = alloca ptr, align 8
  %9 = alloca ptr, align 8
  %10 = alloca ptr, align 8
  %11 = alloca i32, align 4
  store ptr %0, ptr %6, align 8
  store ptr %1, ptr %7, align 8
  store ptr %2, ptr %8, align 8
  store ptr %3, ptr %9, align 8
  call void @llvm.lifetime.start.p0(i64 8, ptr %10) #7
  %12 = load ptr, ptr %9, align 8
  %13 = icmp eq ptr %12, null
  br i1 %13, label %14, label %15

14:                                               ; preds = %4
  store i32 0, ptr %5, align 4
  store i32 1, ptr %11, align 4
  br label %29

15:                                               ; preds = %4
  %16 = load ptr, ptr %9, align 8
  %17 = call ptr @get_asn1_ctx(ptr noundef %16)
  store ptr %17, ptr %10, align 8
  %18 = load ptr, ptr %10, align 8
  %19 = icmp ne ptr %18, null
  br i1 %19, label %20, label %21

20:                                               ; preds = %15
  br label %23

21:                                               ; preds = %15
  call void (ptr, ...) @proto_report_dissector_bug(ptr noundef @.str.626, ptr noundef @.str.412, i32 noundef 2794, ptr noundef @.str.627) #8
  unreachable

22:                                               ; No predecessors!
  br label %23

23:                                               ; preds = %22, %20
  %24 = load ptr, ptr %6, align 8
  %25 = load ptr, ptr %7, align 8
  %26 = load ptr, ptr %8, align 8
  call void @dissect_h264_nal_unit(ptr noundef %24, ptr noundef %25, ptr noundef %26)
  %27 = load ptr, ptr %6, align 8
  %28 = call i32 @tvb_reported_length(ptr noundef %27)
  store i32 %28, ptr %5, align 4
  store i32 1, ptr %11, align 4
  br label %29

29:                                               ; preds = %23, %14
  call void @llvm.lifetime.end.p0(i64 8, ptr %10) #7
  %30 = load i32, ptr %5, align 4
  ret i32 %30
}