; Function Attrs: null_pointer_is_valid sspstrong uwtable
define internal i32 @dissect_h264_par_DecoderConfigurationInformation(ptr noundef %0, ptr noundef %1, ptr noundef %2, ptr noundef %3) #0 {
  %5 = icmp eq ptr %3, null
  br i1 %5, label %11, label %6

6:                                                ; preds = %4
  %7 = tail call ptr @get_asn1_ctx(ptr noundef nonnull %3)
  %.not = icmp eq ptr %7, null
  br i1 %.not, label %8, label %9

8:                                                ; preds = %6
  tail call void (ptr, ...) @proto_report_dissector_bug(ptr noundef nonnull @.str.626, ptr noundef nonnull @.str.412, i32 noundef 2794, ptr noundef nonnull @.str.627) #8
  unreachable

9:                                                ; preds = %6
  tail call void @dissect_h264_nal_unit(ptr noundef %0, ptr noundef %1, ptr noundef %2)
  %10 = tail call i32 @tvb_reported_length(ptr noundef %0)
  br label %11

11:                                               ; preds = %4, %9
  %.0 = phi i32 [ %10, %9 ], [ 0, %4 ]
  ret i32 %.0
}